target datalayout = "e-m:e-p270:32:32-p271:32:32-p272:64:64-i64:64-i128:128-f80:128-n8:16:32:64-S128"
target triple = "x86_64-pc-linux-gnu"

%"class.llvm::MCValue" = type <{ ptr, ptr, i64, i32, [4 x i8] }>

; Function Attrs: mustprogress nounwind uwtable
define linkonce_odr hidden void @_ZN4llvm7MCValueC2Ev(ptr noundef nonnull align 8 dereferenceable(28) %0) unnamed_addr #1 comdat align 2 {
  %2 = alloca ptr, align 8
  store ptr %0, ptr %2, align 8
  %3 = load ptr, ptr %2, align 8
  %4 = getelementptr inbounds nuw %"class.llvm::MCValue", ptr %3, i32 0, i32 0
  store ptr null, ptr %4, align 8
  %5 = getelementptr inbounds nuw %"class.llvm::MCValue", ptr %3, i32 0, i32 1
  store ptr null, ptr %5, align 8
  %6 = getelementptr inbounds nuw %"class.llvm::MCValue", ptr %3, i32 0, i32 2
  store i64 0, ptr %6, align 8
  %7 = getelementptr inbounds nuw %"class.llvm::MCValue", ptr %3, i32 0, i32 3
  store i32 0, ptr %7, align 8
  ret void
}

; Function Attrs: mustprogress nounwind uwtable
define linkonce_odr hidden void @_ZN4llvm7MCValue3getEPKNS_15MCSymbolRefExprES3_lj(ptr dead_on_unwind noalias writable sret(%"class.llvm::MCValue") align 8 %0, ptr noundef %1, ptr noundef %2, i64 noundef %3, i32 noundef %4) #1 comdat align 2 {
  %6 = alloca ptr, align 8
  %7 = alloca ptr, align 8
  %8 = alloca i64, align 8
  %9 = alloca i32, align 4
  store ptr %1, ptr %6, align 8
  store ptr %2, ptr %7, align 8
  store i64 %3, ptr %8, align 8
  store i32 %4, ptr %9, align 4
  call void @_ZN4llvm7MCValueC2Ev(ptr noundef nonnull align 8 dereferenceable(28) %0) #9
  %10 = load i64, ptr %8, align 8
  %11 = getelementptr inbounds nuw %"class.llvm::MCValue", ptr %0, i32 0, i32 2
  store i64 %10, ptr %11, align 8
  %12 = load ptr, ptr %6, align 8
  %13 = getelementptr inbounds nuw %"class.llvm::MCValue", ptr %0, i32 0, i32 0
  store ptr %12, ptr %13, align 8
  %14 = load ptr, ptr %7, align 8
  %15 = getelementptr inbounds nuw %"class.llvm::MCValue", ptr %0, i32 0, i32 1
  store ptr %14, ptr %15, align 8
  %16 = load i32, ptr %9, align 4
  %17 = getelementptr inbounds nuw %"class.llvm::MCValue", ptr %0, i32 0, i32 3
  store i32 %16, ptr %17, align 8
  ret void
}

; Function Attrs: mustprogress nounwind uwtable
define linkonce_odr hidden noundef i32 @_ZNK4llvm7MCValue10getRefKindEv(ptr noundef nonnull align 8 dereferenceable(28) %0) #1 comdat align 2 {
  %2 = alloca ptr, align 8
  store ptr %0, ptr %2, align 8
  %3 = load ptr, ptr %2, align 8
  %4 = getelementptr inbounds nuw %"class.llvm::MCValue", ptr %3, i32 0, i32 3
  %5 = load i32, ptr %4, align 8
  ret i32 %5
}

; Function Attrs: mustprogress nounwind uwtable
define linkonce_odr hidden noundef i64 @_ZNK4llvm7MCValue11getConstantEv(ptr noundef nonnull align 8 dereferenceable(28) %0) #1 comdat align 2 {
  %2 = alloca ptr, align 8
  store ptr %0, ptr %2, align 8
  %3 = load ptr, ptr %2, align 8
  %4 = getelementptr inbounds nuw %"class.llvm::MCValue", ptr %3, i32 0, i32 2
  %5 = load i64, ptr %4, align 8
  ret i64 %5
}

; Function Attrs: mustprogress nounwind uwtable
define linkonce_odr hidden noundef ptr @_ZNK4llvm7MCValue7getSymBEv(ptr noundef nonnull align 8 dereferenceable(28) %0) #1 comdat align 2 {
  %2 = alloca ptr, align 8
  store ptr %0, ptr %2, align 8
  %3 = load ptr, ptr %2, align 8
  %4 = getelementptr inbounds nuw %"class.llvm::MCValue", ptr %3, i32 0, i32 1
  %5 = load ptr, ptr %4, align 8
  ret ptr %5
}

; Function Attrs: mustprogress nounwind uwtable
define linkonce_odr hidden noundef ptr @_ZNK4llvm7MCValue7getSymAEv(ptr noundef nonnull align 8 dereferenceable(28) %0) #1 comdat align 2 {
  %2 = alloca ptr, align 8
  store ptr %0, ptr %2, align 8
  %3 = load ptr, ptr %2, align 8
  %4 = getelementptr inbounds nuw %"class.llvm::MCValue", ptr %3, i32 0, i32 0
  %5 = load ptr, ptr %4, align 8
  ret ptr %5
}

; Function Attrs: mustprogress nounwind uwtable
define internal noundef zeroext i1 @_ZL19evaluateSymbolicAddPKN4llvm11MCAssemblerEPKNS_8DenseMapIPKNS_9MCSectionEmNS_12DenseMapInfoIS6_vEENS_6detail12DenseMapPairIS6_mEEEEbRKNS_7MCValueESH_RSF_(ptr noundef %0, ptr noundef %1, i1 noundef zeroext %2, ptr noundef nonnull align 8 dereferenceable(28) %3, ptr noundef nonnull align 8 dereferenceable(28) %4, ptr noundef nonnull align 8 dereferenceable(28) %5) #1 {
  %7 = alloca i1, align 1
  %8 = alloca ptr, align 8
  %9 = alloca ptr, align 8
  %10 = alloca i8, align 1
  %11 = alloca ptr, align 8
  %12 = alloca ptr, align 8
  %13 = alloca ptr, align 8
  %14 = alloca ptr, align 8
  %15 = alloca ptr, align 8
  %16 = alloca i64, align 8
  %17 = alloca ptr, align 8
  %18 = alloca ptr, align 8
  %19 = alloca i64, align 8
  %20 = alloca i64, align 8
  %21 = alloca ptr, align 8
  %22 = alloca ptr, align 8
  %23 = alloca %"class.llvm::MCValue", align 8
  store ptr %0, ptr %8, align 8
  store ptr %1, ptr %9, align 8
  %24 = zext i1 %2 to i8
  store i8 %24, ptr %10, align 1
  store ptr %3, ptr %11, align 8
  store ptr %4, ptr %12, align 8
  store ptr %5, ptr %13, align 8
  %25 = load ptr, ptr %11, align 8
  %26 = call noundef ptr @_ZNK4llvm7MCValue7getSymAEv(ptr noundef nonnull align 8 dereferenceable(28) %25)
  store ptr %26, ptr %14, align 8
  %27 = load ptr, ptr %11, align 8
  %28 = call noundef ptr @_ZNK4llvm7MCValue7getSymBEv(ptr noundef nonnull align 8 dereferenceable(28) %27)
  store ptr %28, ptr %15, align 8
  %29 = load ptr, ptr %11, align 8
  %30 = call noundef i64 @_ZNK4llvm7MCValue11getConstantEv(ptr noundef nonnull align 8 dereferenceable(28) %29)
  store i64 %30, ptr %16, align 8
  %31 = load ptr, ptr %12, align 8
  %32 = call noundef ptr @_ZNK4llvm7MCValue7getSymAEv(ptr noundef nonnull align 8 dereferenceable(28) %31)
  store ptr %32, ptr %17, align 8
  %33 = load ptr, ptr %12, align 8
  %34 = call noundef ptr @_ZNK4llvm7MCValue7getSymBEv(ptr noundef nonnull align 8 dereferenceable(28) %33)
  store ptr %34, ptr %18, align 8
  %35 = load ptr, ptr %12, align 8
  %36 = call noundef i64 @_ZNK4llvm7MCValue11getConstantEv(ptr noundef nonnull align 8 dereferenceable(28) %35)
  store i64 %36, ptr %19, align 8
  %37 = load ptr, ptr %11, align 8
  %38 = call noundef i32 @_ZNK4llvm7MCValue10getRefKindEv(ptr noundef nonnull align 8 dereferenceable(28) %37)
  %39 = load ptr, ptr %12, align 8
  %40 = call noundef i32 @_ZNK4llvm7MCValue10getRefKindEv(ptr noundef nonnull align 8 dereferenceable(28) %39)
  %41 = icmp ne i32 %38, %40
  br i1 %41, label %42, label %43

42:                                               ; preds = %6
  store i1 false, ptr %7, align 1
  br label %100

43:                                               ; preds = %6
  %44 = load i64, ptr %16, align 8
  %45 = load i64, ptr %19, align 8
  %46 = add nsw i64 %44, %45
  store i64 %46, ptr %20, align 8
  %47 = load ptr, ptr %8, align 8
  %48 = icmp ne ptr %47, null
  br i1 %48, label %49, label %66

49:                                               ; preds = %43
  %50 = load ptr, ptr %8, align 8
  %51 = load ptr, ptr %9, align 8
  %52 = load i8, ptr %10, align 1
  %53 = trunc i8 %52 to i1
  call void @_ZL35AttemptToFoldSymbolOffsetDifferencePKN4llvm11MCAssemblerEPKNS_8DenseMapIPKNS_9MCSectionEmNS_12DenseMapInfoIS6_vEENS_6detail12DenseMapPairIS6_mEEEEbRPKNS_15MCSymbolRefExprESI_Rl(ptr noundef %50, ptr noundef %51, i1 noundef zeroext %53, ptr noundef nonnull align 8 dereferenceable(8) %14, ptr noundef nonnull align 8 dereferenceable(8) %15, ptr noundef nonnull align 8 dereferenceable(8) %20)
  %54 = load ptr, ptr %8, align 8
  %55 = load ptr, ptr %9, align 8
  %56 = load i8, ptr %10, align 1
  %57 = trunc i8 %56 to i1
  call void @_ZL35AttemptToFoldSymbolOffsetDifferencePKN4llvm11MCAssemblerEPKNS_8DenseMapIPKNS_9MCSectionEmNS_12DenseMapInfoIS6_vEENS_6detail12DenseMapPairIS6_mEEEEbRPKNS_15MCSymbolRefExprESI_Rl(ptr noundef %54, ptr noundef %55, i1 noundef zeroext %57, ptr noundef nonnull align 8 dereferenceable(8) %14, ptr noundef nonnull align 8 dereferenceable(8) %18, ptr noundef nonnull align 8 dereferenceable(8) %20)
  %58 = load ptr, ptr %8, align 8
  %59 = load ptr, ptr %9, align 8
  %60 = load i8, ptr %10, align 1
  %61 = trunc i8 %60 to i1
  call void @_ZL35AttemptToFoldSymbolOffsetDifferencePKN4llvm11MCAssemblerEPKNS_8DenseMapIPKNS_9MCSectionEmNS_12DenseMapInfoIS6_vEENS_6detail12DenseMapPairIS6_mEEEEbRPKNS_15MCSymbolRefExprESI_Rl(ptr noundef %58, ptr noundef %59, i1 noundef zeroext %61, ptr noundef nonnull align 8 dereferenceable(8) %17, ptr noundef nonnull align 8 dereferenceable(8) %15, ptr noundef nonnull align 8 dereferenceable(8) %20)
  %62 = load ptr, ptr %8, align 8
  %63 = load ptr, ptr %9, align 8
  %64 = load i8, ptr %10, align 1
  %65 = trunc i8 %64 to i1
  call void @_ZL35AttemptToFoldSymbolOffsetDifferencePKN4llvm11MCAssemblerEPKNS_8DenseMapIPKNS_9MCSectionEmNS_12DenseMapInfoIS6_vEENS_6detail12DenseMapPairIS6_mEEEEbRPKNS_15MCSymbolRefExprESI_Rl(ptr noundef %62, ptr noundef %63, i1 noundef zeroext %65, ptr noundef nonnull align 8 dereferenceable(8) %17, ptr noundef nonnull align 8 dereferenceable(8) %18, ptr noundef nonnull align 8 dereferenceable(8) %20)
  br label %66

66:                                               ; preds = %49, %43
  %67 = load ptr, ptr %14, align 8
  %68 = icmp ne ptr %67, null
  br i1 %68, label %69, label %72

69:                                               ; preds = %66
  %70 = load ptr, ptr %17, align 8
  %71 = icmp ne ptr %70, null
  br i1 %71, label %78, label %72

72:                                               ; preds = %69, %66
  %73 = load ptr, ptr %15, align 8
  %74 = icmp ne ptr %73, null
  br i1 %74, label %75, label %79

75:                                               ; preds = %72
  %76 = load ptr, ptr %18, align 8
  %77 = icmp ne ptr %76, null
  br i1 %77, label %78, label %79

78:                                               ; preds = %75, %69
  store i1 false, ptr %7, align 1
  br label %100

79:                                               ; preds = %75, %72
  %80 = load ptr, ptr %14, align 8
  %81 = icmp ne ptr %80, null
  br i1 %81, label %82, label %84

82:                                               ; preds = %79
  %83 = load ptr, ptr %14, align 8
  br label %86

84:                                               ; preds = %79
  %85 = load ptr, ptr %17, align 8
  br label %86

86:                                               ; preds = %84, %82
  %87 = phi ptr [ %83, %82 ], [ %85, %84 ]
  store ptr %87, ptr %21, align 8
  %88 = load ptr, ptr %15, align 8
  %89 = icmp ne ptr %88, null
  br i1 %89, label %90, label %92

90:                                               ; preds = %86
  %91 = load ptr, ptr %15, align 8
  br label %94

92:                                               ; preds = %86
  %93 = load ptr, ptr %18, align 8
  br label %94

94:                                               ; preds = %92, %90
  %95 = phi ptr [ %91, %90 ], [ %93, %92 ]
  store ptr %95, ptr %22, align 8
  %96 = load ptr, ptr %21, align 8
  %97 = load ptr, ptr %22, align 8
  %98 = load i64, ptr %20, align 8
  call void @_ZN4llvm7MCValue3getEPKNS_15MCSymbolRefExprES3_lj(ptr dead_on_unwind writable sret(%"class.llvm::MCValue") align 8 %23, ptr noundef %96, ptr noundef %97, i64 noundef %98, i32 noundef 0)
  %99 = load ptr, ptr %13, align 8
  call void @llvm.memcpy.p0.p0.i64(ptr align 8 %99, ptr align 8 %23, i64 28, i1 false)
  store i1 true, ptr %7, align 1
  br label %100

100:                                              ; preds = %94, %78, %42
  %101 = load i1, ptr %7, align 1
  ret i1 %101
}