; Function Attrs: mustprogress nounwind uwtable
define internal fastcc noundef zeroext i1 @_ZL19evaluateSymbolicAddPKN4llvm11MCAssemblerEPKNS_8DenseMapIPKNS_9MCSectionEmNS_12DenseMapInfoIS6_vEENS_6detail12DenseMapPairIS6_mEEEEbRKNS_7MCValueESH_RSF_(ptr noundef %0, ptr noundef %1, i1 noundef zeroext %2, ptr nocapture noundef nonnull readonly align 8 dereferenceable(28) %3, ptr nocapture noundef nonnull readonly align 8 dereferenceable(28) %4, ptr nocapture noundef nonnull writeonly align 8 dereferenceable(28) %5) unnamed_addr #0 {
  %7 = alloca ptr, align 8
  %8 = alloca ptr, align 8
  %9 = alloca ptr, align 8
  %10 = alloca ptr, align 8
  %11 = alloca i64, align 8
  %12 = load ptr, ptr %3, align 8
  store ptr %12, ptr %7, align 8
  %13 = getelementptr inbounds nuw i8, ptr %3, i64 8
  %14 = load ptr, ptr %13, align 8
  store ptr %14, ptr %8, align 8
  %15 = getelementptr inbounds nuw i8, ptr %3, i64 16
  %16 = load i64, ptr %15, align 8
  %17 = load ptr, ptr %4, align 8
  store ptr %17, ptr %9, align 8
  %18 = getelementptr inbounds nuw i8, ptr %4, i64 8
  %19 = load ptr, ptr %18, align 8
  store ptr %19, ptr %10, align 8
  %20 = getelementptr inbounds nuw i8, ptr %3, i64 24
  %21 = load i32, ptr %20, align 8
  %22 = getelementptr inbounds nuw i8, ptr %4, i64 24
  %23 = load i32, ptr %22, align 8
  %.not = icmp eq i32 %21, %23
  br i1 %.not, label %24, label %43

24:                                               ; preds = %6
  %25 = getelementptr inbounds nuw i8, ptr %4, i64 16
  %26 = load i64, ptr %25, align 8
  %27 = add nsw i64 %26, %16
  store i64 %27, ptr %11, align 8
  %.not30 = icmp eq ptr %0, null
  br i1 %.not30, label %29, label %28

28:                                               ; preds = %24
  call fastcc void @_ZL35AttemptToFoldSymbolOffsetDifferencePKN4llvm11MCAssemblerEPKNS_8DenseMapIPKNS_9MCSectionEmNS_12DenseMapInfoIS6_vEENS_6detail12DenseMapPairIS6_mEEEEbRPKNS_15MCSymbolRefExprESI_Rl(ptr noundef nonnull %0, ptr noundef %1, i1 noundef zeroext %2, ptr noundef nonnull align 8 dereferenceable(8) %7, ptr noundef nonnull align 8 dereferenceable(8) %8, ptr noundef nonnull align 8 dereferenceable(8) %11)
  call fastcc void @_ZL35AttemptToFoldSymbolOffsetDifferencePKN4llvm11MCAssemblerEPKNS_8DenseMapIPKNS_9MCSectionEmNS_12DenseMapInfoIS6_vEENS_6detail12DenseMapPairIS6_mEEEEbRPKNS_15MCSymbolRefExprESI_Rl(ptr noundef nonnull %0, ptr noundef %1, i1 noundef zeroext %2, ptr noundef nonnull align 8 dereferenceable(8) %7, ptr noundef nonnull align 8 dereferenceable(8) %10, ptr noundef nonnull align 8 dereferenceable(8) %11)
  call fastcc void @_ZL35AttemptToFoldSymbolOffsetDifferencePKN4llvm11MCAssemblerEPKNS_8DenseMapIPKNS_9MCSectionEmNS_12DenseMapInfoIS6_vEENS_6detail12DenseMapPairIS6_mEEEEbRPKNS_15MCSymbolRefExprESI_Rl(ptr noundef nonnull %0, ptr noundef %1, i1 noundef zeroext %2, ptr noundef nonnull align 8 dereferenceable(8) %9, ptr noundef nonnull align 8 dereferenceable(8) %8, ptr noundef nonnull align 8 dereferenceable(8) %11)
  call fastcc void @_ZL35AttemptToFoldSymbolOffsetDifferencePKN4llvm11MCAssemblerEPKNS_8DenseMapIPKNS_9MCSectionEmNS_12DenseMapInfoIS6_vEENS_6detail12DenseMapPairIS6_mEEEEbRPKNS_15MCSymbolRefExprESI_Rl(ptr noundef nonnull %0, ptr noundef %1, i1 noundef zeroext %2, ptr noundef nonnull align 8 dereferenceable(8) %9, ptr noundef nonnull align 8 dereferenceable(8) %10, ptr noundef nonnull align 8 dereferenceable(8) %11)
  %.pre = load ptr, ptr %7, align 8
  %.pre31 = load ptr, ptr %9, align 8
  br label %29

29:                                               ; preds = %28, %24
  %30 = phi ptr [ %.pre31, %28 ], [ %17, %24 ]
  %31 = phi ptr [ %.pre, %28 ], [ %12, %24 ]
  %32 = icmp ne ptr %31, null
  %33 = icmp ne ptr %30, null
  %or.cond = select i1 %32, i1 %33, i1 false
  br i1 %or.cond, label %43, label %34

34:                                               ; preds = %29
  %35 = load ptr, ptr %8, align 8
  %36 = icmp ne ptr %35, null
  %37 = load ptr, ptr %10, align 8
  %38 = icmp ne ptr %37, null
  %or.cond3 = select i1 %36, i1 %38, i1 false
  br i1 %or.cond3, label %43, label %39

39:                                               ; preds = %34
  %40 = select i1 %32, ptr %31, ptr %30
  %41 = select i1 %36, ptr %35, ptr %37
  %42 = load i64, ptr %11, align 8
  store ptr %40, ptr %5, align 8
  %.sroa.2.0..sroa_idx = getelementptr inbounds i8, ptr %5, i64 8
  store ptr %41, ptr %.sroa.2.0..sroa_idx, align 8
  %.sroa.3.0..sroa_idx = getelementptr inbounds i8, ptr %5, i64 16
  store i64 %42, ptr %.sroa.3.0..sroa_idx, align 8
  %.sroa.4.0..sroa_idx = getelementptr inbounds i8, ptr %5, i64 24
  store i32 0, ptr %.sroa.4.0..sroa_idx, align 8
  br label %43

43:                                               ; preds = %29, %34, %6, %39
  %.0 = phi i1 [ true, %39 ], [ false, %6 ], [ false, %34 ], [ false, %29 ]
  ret i1 %.0
}